; Function Attrs: mustprogress uwtable
define hidden void @_ZN3sat14cut_simplifier16ensure_validatorEv(ptr nocapture noundef nonnull align 8 dereferenceable(600) %this) local_unnamed_addr #3 align 2 personality ptr @__gxx_personality_v0 {
entry:
  %p = alloca %class.params_ref, align 8
  %ref.tmp = alloca %class.symbol, align 8
  %m_validator = getelementptr inbounds i8, ptr %this, i64 568
  %0 = load ptr, ptr %m_validator, align 8
  %tobool.not = icmp eq ptr %0, null
  br i1 %tobool.not, label %if.then, label %if.end

if.then:                                          ; preds = %entry
  store ptr null, ptr %p, align 8
  invoke void @_ZN10params_ref8set_boolEPKcb(ptr noundef nonnull align 8 dereferenceable(8) %p, ptr noundef nonnull @.str, i1 noundef zeroext false)
          to label %invoke.cont unwind label %lpad

invoke.cont:                                      ; preds = %if.then
  invoke void @_ZN10params_ref8set_boolEPKcb(ptr noundef nonnull align 8 dereferenceable(8) %p, ptr noundef nonnull @.str.2, i1 noundef zeroext false)
          to label %invoke.cont2 unwind label %lpad

invoke.cont2:                                     ; preds = %invoke.cont
  store ptr null, ptr %ref.tmp, align 8
  invoke void @_ZN10params_ref7set_symEPKcRK6symbol(ptr noundef nonnull align 8 dereferenceable(8) %p, ptr noundef nonnull @.str.3, ptr noundef nonnull align 8 dereferenceable(8) %ref.tmp)
          to label %invoke.cont4 unwind label %lpad

invoke.cont4:                                     ; preds = %invoke.cont2
  invoke void @_ZN10params_ref8set_uintEPKcj(ptr noundef nonnull align 8 dereferenceable(8) %p, ptr noundef nonnull @.str.4, i32 noundef 10000)
          to label %invoke.cont5 unwind label %lpad

invoke.cont5:                                     ; preds = %invoke.cont4
  %call = invoke noalias noundef ptr @_ZN6memory8allocateEm(i64 noundef 24)
          to label %invoke.cont6 unwind label %lpad

invoke.cont6:                                     ; preds = %invoke.cont5
  %1 = load ptr, ptr %this, align 8
  store ptr %1, ptr %call, align 8
  %p3.i = getelementptr inbounds i8, ptr %call, i64 8
  invoke void @_ZN10params_refC1ERKS_(ptr noundef nonnull align 8 dereferenceable(8) %p3.i, ptr noundef nonnull align 8 dereferenceable(8) %p)
          to label %invoke.cont7 unwind label %lpad

invoke.cont7:                                     ; preds = %invoke.cont6
  %m_assumptions.i = getelementptr inbounds i8, ptr %call, i64 16
  store ptr null, ptr %m_assumptions.i, align 8
  store ptr %call, ptr %m_validator, align 8
  call void @_ZN10params_refD1Ev(ptr noundef nonnull align 8 dereferenceable(8) %p) #20
  br label %if.end

lpad:                                             ; preds = %invoke.cont6, %invoke.cont5, %invoke.cont4, %invoke.cont2, %invoke.cont, %if.then
  %2 = landingpad { ptr, i32 }
          cleanup
  call void @_ZN10params_refD1Ev(ptr noundef nonnull align 8 dereferenceable(8) %p) #20
  resume { ptr, i32 } %2

if.end:                                           ; preds = %invoke.cont7, %entry
  ret void
}